target datalayout = "e-m:e-p270:32:32-p271:32:32-p272:64:64-i64:64-i128:128-f80:128-n8:16:32:64-S128"
target triple = "x86_64-pc-linux-gnu"

@.str = private unnamed_addr constant [10 x i8] c"ENCRYPTED\00", align 1
@.str.1 = private unnamed_addr constant [10 x i8] c"MIC-CLEAR\00", align 1
@.str.2 = private unnamed_addr constant [9 x i8] c"MIC-ONLY\00", align 1
@.str.3 = private unnamed_addr constant [9 x i8] c"BAD-TYPE\00", align 1
@.str.4 = private unnamed_addr constant [14 x i8] c"Proc-Type: 4,\00", align 1
@.str.5 = private unnamed_addr constant [2 x i8] c"\0A\00", align 1

; Function Attrs: nounwind uwtable
define hidden void @PEM_proc_type(ptr noundef %0, i32 noundef %1) #0 {
  %3 = alloca ptr, align 8
  %4 = alloca i32, align 4
  %5 = alloca ptr, align 8
  store ptr %0, ptr %3, align 8, !tbaa !6
  store i32 %1, ptr %4, align 4, !tbaa !11
  call void @llvm.lifetime.start.p0(i64 8, ptr %5) #7
  %6 = load i32, ptr %4, align 4, !tbaa !11
  %7 = icmp eq i32 %6, 10
  br i1 %7, label %8, label %9

8:                                                ; preds = %2
  store ptr @.str, ptr %5, align 8, !tbaa !6
  br label %20

9:                                                ; preds = %2
  %10 = load i32, ptr %4, align 4, !tbaa !11
  %11 = icmp eq i32 %10, 30
  br i1 %11, label %12, label %13

12:                                               ; preds = %9
  store ptr @.str.1, ptr %5, align 8, !tbaa !6
  br label %19

13:                                               ; preds = %9
  %14 = load i32, ptr %4, align 4, !tbaa !11
  %15 = icmp eq i32 %14, 20
  br i1 %15, label %16, label %17

16:                                               ; preds = %13
  store ptr @.str.2, ptr %5, align 8, !tbaa !6
  br label %18

17:                                               ; preds = %13
  store ptr @.str.3, ptr %5, align 8, !tbaa !6
  br label %18

18:                                               ; preds = %17, %16
  br label %19

19:                                               ; preds = %18, %12
  br label %20

20:                                               ; preds = %19, %8
  %21 = load ptr, ptr %3, align 8, !tbaa !6
  %22 = call i64 @BUF_strlcat(ptr noundef %21, ptr noundef @.str.4, i64 noundef 1024)
  %23 = load ptr, ptr %3, align 8, !tbaa !6
  %24 = load ptr, ptr %5, align 8, !tbaa !6
  %25 = call i64 @BUF_strlcat(ptr noundef %23, ptr noundef %24, i64 noundef 1024)
  %26 = load ptr, ptr %3, align 8, !tbaa !6
  %27 = call i64 @BUF_strlcat(ptr noundef %26, ptr noundef @.str.5, i64 noundef 1024)
  call void @llvm.lifetime.end.p0(i64 8, ptr %5) #7
  ret void
}