; Function Attrs: nounwind uwtable
define hidden void @PEM_proc_type(ptr noundef %0, i32 noundef %1) local_unnamed_addr #0 {
  switch i32 %1, label %5 [
    i32 10, label %6
    i32 30, label %3
    i32 20, label %4
  ]

3:                                                ; preds = %2
  br label %6

4:                                                ; preds = %2
  br label %6

5:                                                ; preds = %2
  br label %6

6:                                                ; preds = %2, %3, %5, %4
  %.0 = phi ptr [ @.str.1, %3 ], [ @.str.2, %4 ], [ @.str.3, %5 ], [ @.str, %2 ]
  %7 = tail call i64 @BUF_strlcat(ptr noundef %0, ptr noundef nonnull @.str.4, i64 noundef 1024) #12
  %8 = tail call i64 @BUF_strlcat(ptr noundef %0, ptr noundef nonnull %.0, i64 noundef 1024) #12
  %9 = tail call i64 @BUF_strlcat(ptr noundef %0, ptr noundef nonnull @.str.5, i64 noundef 1024) #12
  ret void
}